; Function Attrs: nounwind uwtable
define hidden void @je_large_dalloc(ptr noundef %0, ptr noundef %1) local_unnamed_addr #0 {
  %3 = alloca i8, align 1
  %.val = load i64, ptr %1, align 8, !tbaa !93
  %4 = and i64 %.val, 4095
  %5 = getelementptr inbounds nuw [0 x %struct.atomic_p_t], ptr @je_arenas, i64 0, i64 %4
  %6 = load atomic i64, ptr %5 monotonic, align 8
  %.0.i.i = inttoptr i64 %6 to ptr
  tail call fastcc void @large_dalloc_prep_impl(ptr noundef %0, ptr noundef %.0.i.i, ptr noundef nonnull %1, i1 noundef zeroext false)
  call void @llvm.lifetime.start.p0(i64 1, ptr nonnull %3) #11
  store i8 0, ptr %3, align 1, !tbaa !71
  %7 = getelementptr inbounds nuw i8, ptr %.0.i.i, i64 10648
  call void @je_pa_dalloc(ptr noundef %0, ptr noundef nonnull %7, ptr noundef nonnull %1, ptr noundef nonnull %3) #11
  %8 = load i8, ptr %3, align 1, !tbaa !71, !range !72, !noundef !73
  %9 = trunc nuw i8 %8 to i1
  br i1 %9, label %10, label %large_dalloc_finish_impl.exit

10:                                               ; preds = %2
  call void @je_arena_handle_deferred_work(ptr noundef %0, ptr noundef nonnull %.0.i.i) #11
  br label %large_dalloc_finish_impl.exit

large_dalloc_finish_impl.exit:                    ; preds = %2, %10
  call void @llvm.lifetime.end.p0(i64 1, ptr nonnull %3) #11
  %11 = icmp eq ptr %0, null
  br i1 %11, label %arena_decay_ticks.exit, label %12, !prof !10

12:                                               ; preds = %large_dalloc_finish_impl.exit
  %13 = getelementptr inbounds nuw i8, ptr %0, i64 152
  %14 = load i32, ptr %13, align 4, !tbaa !88
  %15 = add nsw i32 %14, -1
  store i32 %15, ptr %13, align 4, !tbaa !88
  %16 = icmp slt i32 %14, 1
  br i1 %16, label %17, label %arena_decay_ticks.exit, !prof !10

17:                                               ; preds = %12
  %18 = getelementptr inbounds nuw i8, ptr %0, i64 112
  %19 = load i64, ptr %18, align 8, !tbaa !8
  %20 = mul i64 %19, 6364136223846793005
  %21 = add i64 %20, 1442695040888963407
  store i64 %21, ptr %18, align 8, !tbaa !8
  %22 = lshr i64 %21, 58
  %23 = getelementptr inbounds nuw i8, ptr %0, i64 156
  %24 = load i32, ptr %23, align 4, !tbaa !90
  %25 = sext i32 %24 to i64
  %26 = getelementptr inbounds nuw [64 x i8], ptr @je_ticker_geom_table, i64 0, i64 %22
  %27 = load i8, ptr %26, align 1, !tbaa !5
  %28 = zext i8 %27 to i64
  %29 = mul nsw i64 %28, %25
  %30 = udiv i64 %29, 61
  %31 = trunc i64 %30 to i32
  store i32 %31, ptr %13, align 4, !tbaa !88
  call void @je_arena_decay(ptr noundef nonnull %0, ptr noundef nonnull %.0.i.i, i1 noundef zeroext false, i1 noundef zeroext false) #11
  br label %arena_decay_ticks.exit

arena_decay_ticks.exit:                           ; preds = %12, %large_dalloc_finish_impl.exit, %17
  ret void
}